; Function Attrs: mustprogress uwtable
define dso_local void @_ZN30btKinematicCharacterController5setUpERK9btVector3(ptr noundef nonnull align 8 dereferenceable(319) %this, ptr nocapture noundef nonnull readonly align 4 dereferenceable(16) %up) local_unnamed_addr #1 align 2 {
entry:
  %ref.tmp.i = alloca %class.btVector3, align 8
  %0 = load float, ptr %up, align 4
  %arrayidx5.i.i = getelementptr inbounds i8, ptr %up, i64 4
  %1 = load float, ptr %arrayidx5.i.i, align 4
  %mul8.i.i = fmul float %1, %1
  %2 = tail call float @llvm.fmuladd.f32(float %0, float %0, float %mul8.i.i)
  %arrayidx10.i.i = getelementptr inbounds i8, ptr %up, i64 8
  %3 = load float, ptr %arrayidx10.i.i, align 4
  %4 = tail call noundef float @llvm.fmuladd.f32(float %3, float %3, float %2)
  %cmp = fcmp ogt float %4, 0.000000e+00
  br i1 %cmp, label %land.lhs.true, label %if.end

land.lhs.true:                                    ; preds = %entry
  %m_gravity = getelementptr inbounds i8, ptr %this, i64 68
  %5 = load float, ptr %m_gravity, align 4
  %cmp2 = fcmp ogt float %5, 0.000000e+00
  br i1 %cmp2, label %if.then, label %if.end

if.then:                                          ; preds = %land.lhs.true
  %fneg = fneg float %5
  %nrm.sroa.0.0.copyload.i = load <2 x float>, ptr %up, align 4
  %nrm.sroa.6.0.copyload.i = load <2 x float>, ptr %arrayidx10.i.i, align 4
  %6 = fmul <2 x float> %nrm.sroa.0.0.copyload.i, %nrm.sroa.0.0.copyload.i
  %mul8.i.i.i.i.i = extractelement <2 x float> %6, i64 1
  %7 = extractelement <2 x float> %nrm.sroa.0.0.copyload.i, i64 0
  %8 = tail call float @llvm.fmuladd.f32(float %7, float %7, float %mul8.i.i.i.i.i)
  %nrm.sroa.6.8.vec.extract.i = extractelement <2 x float> %nrm.sroa.6.0.copyload.i, i64 0
  %9 = tail call noundef float @llvm.fmuladd.f32(float %nrm.sroa.6.8.vec.extract.i, float %nrm.sroa.6.8.vec.extract.i, float %8)
  %sqrt.i.i.i = tail call noundef float @llvm.sqrt.f32(float %9)
  %div.i.i.i = fdiv float 1.000000e+00, %sqrt.i.i.i
  %mul7.i.i.i.i = fmul float %nrm.sroa.6.8.vec.extract.i, %div.i.i.i
  %10 = insertelement <2 x float> poison, float %div.i.i.i, i64 0
  %11 = shufflevector <2 x float> %10, <2 x float> poison, <2 x i32> zeroinitializer
  %12 = fmul <2 x float> %nrm.sroa.0.0.copyload.i, %11
  %13 = insertelement <2 x float> poison, float %fneg, i64 0
  %14 = shufflevector <2 x float> %13, <2 x float> poison, <2 x i32> zeroinitializer
  %15 = fmul <2 x float> %12, %14
  %mul8.i.i3 = fmul float %mul7.i.i.i.i, %fneg
  call void @llvm.lifetime.start.p0(i64 16, ptr nonnull %ref.tmp.i)
  %16 = fmul <2 x float> %15, %15
  %mul8.i.i.i = extractelement <2 x float> %16, i64 1
  %17 = extractelement <2 x float> %15, i64 0
  %18 = tail call float @llvm.fmuladd.f32(float %17, float %17, float %mul8.i.i.i)
  %19 = tail call noundef float @llvm.fmuladd.f32(float %mul8.i.i3, float %mul8.i.i3, float %18)
  %cmp.i = fcmp ogt float %19, 0.000000e+00
  br i1 %cmp.i, label %if.then.i, label %_ZN30btKinematicCharacterController10setGravityERK9btVector3.exit

if.then.i:                                        ; preds = %if.then
  %20 = fneg <2 x float> %15
  %fneg8.i.i = fneg float %mul8.i.i3
  %retval.sroa.3.12.vec.insert.i.i6 = insertelement <2 x float> <float poison, float 0.000000e+00>, float %fneg8.i.i, i64 0
  store <2 x float> %20, ptr %ref.tmp.i, align 8
  %21 = getelementptr inbounds i8, ptr %ref.tmp.i, i64 8
  store <2 x float> %retval.sroa.3.12.vec.insert.i.i6, ptr %21, align 8
  call void @_ZN30btKinematicCharacterController11setUpVectorERK9btVector3(ptr noundef nonnull align 8 dereferenceable(319) %this, ptr noundef nonnull align 4 dereferenceable(16) %ref.tmp.i)
  br label %_ZN30btKinematicCharacterController10setGravityERK9btVector3.exit

_ZN30btKinematicCharacterController10setGravityERK9btVector3.exit: ; preds = %if.then, %if.then.i
  %sqrt.i.i = tail call noundef float @llvm.sqrt.f32(float %19)
  store float %sqrt.i.i, ptr %m_gravity, align 4
  call void @llvm.lifetime.end.p0(i64 16, ptr nonnull %ref.tmp.i)
  br label %return

if.end:                                           ; preds = %land.lhs.true, %entry
  tail call void @_ZN30btKinematicCharacterController11setUpVectorERK9btVector3(ptr noundef nonnull align 8 dereferenceable(319) %this, ptr noundef nonnull align 4 dereferenceable(16) %up)
  br label %return

return:                                           ; preds = %if.end, %_ZN30btKinematicCharacterController10setGravityERK9btVector3.exit
  ret void
}